target datalayout = "e-m:e-p270:32:32-p271:32:32-p272:64:64-i64:64-i128:128-f80:128-n8:16:32:64-S128"
target triple = "x86_64-pc-linux-gnu"

%struct.z_stream_s = type { ptr, i32, i64, ptr, i32, i64, ptr, ptr, ptr, ptr, ptr, i32, i64, i64 }
%struct.internal_state = type { ptr, i32, ptr, i64, ptr, i64, i32, ptr, i64, i8, i32, i32, i32, i32, ptr, i64, ptr, ptr, i32, i32, i32, i32, i32, i64, i32, i32, i32, i32, i32, i32, i32, i32, i32, i32, i32, i32, i32, [573 x %struct.ct_data_s], [61 x %struct.ct_data_s], [39 x %struct.ct_data_s], %struct.tree_desc_s, %struct.tree_desc_s, %struct.tree_desc_s, [16 x i16], [573 x i32], i32, i32, [573 x i8], ptr, i32, i32, i32, i64, i64, i32, i32, i16, i32, i64 }
%struct.ct_data_s = type { %union.anon, %union.anon.0 }
%union.anon = type { i16 }
%union.anon.0 = type { i16 }
%struct.tree_desc_s = type { ptr, i32, ptr }
%struct.gz_header_s = type { i32, i64, i32, i32, ptr, i32, i32, ptr, i32, ptr, i32, i32, i32 }

; Function Attrs: nounwind uwtable
define internal i32 @deflateStateCheck(ptr noundef %0) #0 {
  %2 = alloca i32, align 4
  %3 = alloca ptr, align 8
  %4 = alloca ptr, align 8
  %5 = alloca i32, align 4
  store ptr %0, ptr %3, align 8, !tbaa !4
  call void @llvm.lifetime.start.p0(i64 8, ptr %4) #5
  %6 = load ptr, ptr %3, align 8, !tbaa !4
  %7 = icmp eq ptr %6, null
  br i1 %7, label %18, label %8

8:                                                ; preds = %1
  %9 = load ptr, ptr %3, align 8, !tbaa !4
  %10 = getelementptr inbounds nuw %struct.z_stream_s, ptr %9, i32 0, i32 8
  %11 = load ptr, ptr %10, align 8, !tbaa !18
  %12 = icmp eq ptr %11, null
  br i1 %12, label %18, label %13

13:                                               ; preds = %8
  %14 = load ptr, ptr %3, align 8, !tbaa !4
  %15 = getelementptr inbounds nuw %struct.z_stream_s, ptr %14, i32 0, i32 9
  %16 = load ptr, ptr %15, align 8, !tbaa !20
  %17 = icmp eq ptr %16, null
  br i1 %17, label %18, label %19

18:                                               ; preds = %13, %8, %1
  store i32 1, ptr %2, align 4
  store i32 1, ptr %5, align 4
  br label %73

19:                                               ; preds = %13
  %20 = load ptr, ptr %3, align 8, !tbaa !4
  %21 = getelementptr inbounds nuw %struct.z_stream_s, ptr %20, i32 0, i32 7
  %22 = load ptr, ptr %21, align 8, !tbaa !22
  store ptr %22, ptr %4, align 8, !tbaa !21
  %23 = load ptr, ptr %4, align 8, !tbaa !21
  %24 = icmp eq ptr %23, null
  br i1 %24, label %71, label %25

25:                                               ; preds = %19
  %26 = load ptr, ptr %4, align 8, !tbaa !21
  %27 = getelementptr inbounds nuw %struct.internal_state, ptr %26, i32 0, i32 0
  %28 = load ptr, ptr %27, align 8, !tbaa !23
  %29 = load ptr, ptr %3, align 8, !tbaa !4
  %30 = icmp ne ptr %28, %29
  br i1 %30, label %71, label %31

31:                                               ; preds = %25
  %32 = load ptr, ptr %4, align 8, !tbaa !21
  %33 = getelementptr inbounds nuw %struct.internal_state, ptr %32, i32 0, i32 1
  %34 = load i32, ptr %33, align 8, !tbaa !31
  %35 = icmp ne i32 %34, 42
  br i1 %35, label %36, label %72

36:                                               ; preds = %31
  %37 = load ptr, ptr %4, align 8, !tbaa !21
  %38 = getelementptr inbounds nuw %struct.internal_state, ptr %37, i32 0, i32 1
  %39 = load i32, ptr %38, align 8, !tbaa !31
  %40 = icmp ne i32 %39, 57
  br i1 %40, label %41, label %72

41:                                               ; preds = %36
  %42 = load ptr, ptr %4, align 8, !tbaa !21
  %43 = getelementptr inbounds nuw %struct.internal_state, ptr %42, i32 0, i32 1
  %44 = load i32, ptr %43, align 8, !tbaa !31
  %45 = icmp ne i32 %44, 69
  br i1 %45, label %46, label %72

46:                                               ; preds = %41
  %47 = load ptr, ptr %4, align 8, !tbaa !21
  %48 = getelementptr inbounds nuw %struct.internal_state, ptr %47, i32 0, i32 1
  %49 = load i32, ptr %48, align 8, !tbaa !31
  %50 = icmp ne i32 %49, 73
  br i1 %50, label %51, label %72

51:                                               ; preds = %46
  %52 = load ptr, ptr %4, align 8, !tbaa !21
  %53 = getelementptr inbounds nuw %struct.internal_state, ptr %52, i32 0, i32 1
  %54 = load i32, ptr %53, align 8, !tbaa !31
  %55 = icmp ne i32 %54, 91
  br i1 %55, label %56, label %72

56:                                               ; preds = %51
  %57 = load ptr, ptr %4, align 8, !tbaa !21
  %58 = getelementptr inbounds nuw %struct.internal_state, ptr %57, i32 0, i32 1
  %59 = load i32, ptr %58, align 8, !tbaa !31
  %60 = icmp ne i32 %59, 103
  br i1 %60, label %61, label %72

61:                                               ; preds = %56
  %62 = load ptr, ptr %4, align 8, !tbaa !21
  %63 = getelementptr inbounds nuw %struct.internal_state, ptr %62, i32 0, i32 1
  %64 = load i32, ptr %63, align 8, !tbaa !31
  %65 = icmp ne i32 %64, 113
  br i1 %65, label %66, label %72

66:                                               ; preds = %61
  %67 = load ptr, ptr %4, align 8, !tbaa !21
  %68 = getelementptr inbounds nuw %struct.internal_state, ptr %67, i32 0, i32 1
  %69 = load i32, ptr %68, align 8, !tbaa !31
  %70 = icmp ne i32 %69, 666
  br i1 %70, label %71, label %72

71:                                               ; preds = %66, %25, %19
  store i32 1, ptr %2, align 4
  store i32 1, ptr %5, align 4
  br label %73

72:                                               ; preds = %66, %61, %56, %51, %46, %41, %36, %31
  store i32 0, ptr %2, align 4
  store i32 1, ptr %5, align 4
  br label %73

73:                                               ; preds = %72, %71, %18
  call void @llvm.lifetime.end.p0(i64 8, ptr %4) #5
  %74 = load i32, ptr %2, align 4
  ret i32 %74
}

; Function Attrs: nounwind uwtable
define dso_local i64 @cm_zlib_deflateBound(ptr noundef %0, i64 noundef %1) #0 {
  %3 = alloca i64, align 8
  %4 = alloca ptr, align 8
  %5 = alloca i64, align 8
  %6 = alloca ptr, align 8
  %7 = alloca i64, align 8
  %8 = alloca i64, align 8
  %9 = alloca i64, align 8
  %10 = alloca i32, align 4
  %11 = alloca ptr, align 8
  store ptr %0, ptr %4, align 8, !tbaa !4
  store i64 %1, ptr %5, align 8, !tbaa !72
  call void @llvm.lifetime.start.p0(i64 8, ptr %6) #5
  call void @llvm.lifetime.start.p0(i64 8, ptr %7) #5
  call void @llvm.lifetime.start.p0(i64 8, ptr %8) #5
  call void @llvm.lifetime.start.p0(i64 8, ptr %9) #5
  %12 = load i64, ptr %5, align 8, !tbaa !72
  %13 = load i64, ptr %5, align 8, !tbaa !72
  %14 = lshr i64 %13, 3
  %15 = add i64 %12, %14
  %16 = load i64, ptr %5, align 8, !tbaa !72
  %17 = lshr i64 %16, 8
  %18 = add i64 %15, %17
  %19 = load i64, ptr %5, align 8, !tbaa !72
  %20 = lshr i64 %19, 9
  %21 = add i64 %18, %20
  %22 = add i64 %21, 4
  store i64 %22, ptr %7, align 8, !tbaa !72
  %23 = load i64, ptr %5, align 8, !tbaa !72
  %24 = load i64, ptr %5, align 8, !tbaa !72
  %25 = lshr i64 %24, 5
  %26 = add i64 %23, %25
  %27 = load i64, ptr %5, align 8, !tbaa !72
  %28 = lshr i64 %27, 7
  %29 = add i64 %26, %28
  %30 = load i64, ptr %5, align 8, !tbaa !72
  %31 = lshr i64 %30, 11
  %32 = add i64 %29, %31
  %33 = add i64 %32, 7
  store i64 %33, ptr %8, align 8, !tbaa !72
  %34 = load ptr, ptr %4, align 8, !tbaa !4
  %35 = call i32 @deflateStateCheck(ptr noundef %34)
  %36 = icmp ne i32 %35, 0
  br i1 %36, label %37, label %48

37:                                               ; preds = %2
  %38 = load i64, ptr %7, align 8, !tbaa !72
  %39 = load i64, ptr %8, align 8, !tbaa !72
  %40 = icmp ugt i64 %38, %39
  br i1 %40, label %41, label %43

41:                                               ; preds = %37
  %42 = load i64, ptr %7, align 8, !tbaa !72
  br label %45

43:                                               ; preds = %37
  %44 = load i64, ptr %8, align 8, !tbaa !72
  br label %45

45:                                               ; preds = %43, %41
  %46 = phi i64 [ %42, %41 ], [ %44, %43 ]
  %47 = add i64 %46, 6
  store i64 %47, ptr %3, align 8
  store i32 1, ptr %10, align 4
  br label %181

48:                                               ; preds = %2
  %49 = load ptr, ptr %4, align 8, !tbaa !4
  %50 = getelementptr inbounds nuw %struct.z_stream_s, ptr %49, i32 0, i32 7
  %51 = load ptr, ptr %50, align 8, !tbaa !22
  store ptr %51, ptr %6, align 8, !tbaa !21
  %52 = load ptr, ptr %6, align 8, !tbaa !21
  %53 = getelementptr inbounds nuw %struct.internal_state, ptr %52, i32 0, i32 6
  %54 = load i32, ptr %53, align 8, !tbaa !32
  switch i32 %54, label %134 [
    i32 0, label %55
    i32 1, label %56
    i32 2, label %64
  ]

55:                                               ; preds = %48
  store i64 0, ptr %9, align 8, !tbaa !72
  br label %135

56:                                               ; preds = %48
  %57 = load ptr, ptr %6, align 8, !tbaa !21
  %58 = getelementptr inbounds nuw %struct.internal_state, ptr %57, i32 0, i32 27
  %59 = load i32, ptr %58, align 4, !tbaa !56
  %60 = icmp ne i32 %59, 0
  %61 = select i1 %60, i32 4, i32 0
  %62 = add nsw i32 6, %61
  %63 = sext i32 %62 to i64
  store i64 %63, ptr %9, align 8, !tbaa !72
  br label %135

64:                                               ; preds = %48
  store i64 18, ptr %9, align 8, !tbaa !72
  %65 = load ptr, ptr %6, align 8, !tbaa !21
  %66 = getelementptr inbounds nuw %struct.internal_state, ptr %65, i32 0, i32 7
  %67 = load ptr, ptr %66, align 8, !tbaa !33
  %68 = icmp ne ptr %67, null
  br i1 %68, label %69, label %133

69:                                               ; preds = %64
  call void @llvm.lifetime.start.p0(i64 8, ptr %11) #5
  %70 = load ptr, ptr %6, align 8, !tbaa !21
  %71 = getelementptr inbounds nuw %struct.internal_state, ptr %70, i32 0, i32 7
  %72 = load ptr, ptr %71, align 8, !tbaa !33
  %73 = getelementptr inbounds nuw %struct.gz_header_s, ptr %72, i32 0, i32 4
  %74 = load ptr, ptr %73, align 8, !tbaa !102
  %75 = icmp ne ptr %74, null
  br i1 %75, label %76, label %86

76:                                               ; preds = %69
  %77 = load ptr, ptr %6, align 8, !tbaa !21
  %78 = getelementptr inbounds nuw %struct.internal_state, ptr %77, i32 0, i32 7
  %79 = load ptr, ptr %78, align 8, !tbaa !33
  %80 = getelementptr inbounds nuw %struct.gz_header_s, ptr %79, i32 0, i32 5
  %81 = load i32, ptr %80, align 8, !tbaa !107
  %82 = add i32 2, %81
  %83 = zext i32 %82 to i64
  %84 = load i64, ptr %9, align 8, !tbaa !72
  %85 = add i64 %84, %83
  store i64 %85, ptr %9, align 8, !tbaa !72
  br label %86

86:                                               ; preds = %76, %69
  %87 = load ptr, ptr %6, align 8, !tbaa !21
  %88 = getelementptr inbounds nuw %struct.internal_state, ptr %87, i32 0, i32 7
  %89 = load ptr, ptr %88, align 8, !tbaa !33
  %90 = getelementptr inbounds nuw %struct.gz_header_s, ptr %89, i32 0, i32 7
  %91 = load ptr, ptr %90, align 8, !tbaa !103
  store ptr %91, ptr %11, align 8, !tbaa !11
  %92 = load ptr, ptr %11, align 8, !tbaa !11
  %93 = icmp ne ptr %92, null
  br i1 %93, label %94, label %104

94:                                               ; preds = %86
  br label %95

95:                                               ; preds = %98, %94
  %96 = load i64, ptr %9, align 8, !tbaa !72
  %97 = add i64 %96, 1
  store i64 %97, ptr %9, align 8, !tbaa !72
  br label %98

98:                                               ; preds = %95
  %99 = load ptr, ptr %11, align 8, !tbaa !11
  %100 = getelementptr inbounds nuw i8, ptr %99, i32 1
  store ptr %100, ptr %11, align 8, !tbaa !11
  %101 = load i8, ptr %99, align 1, !tbaa !13
  %102 = icmp ne i8 %101, 0
  br i1 %102, label %95, label %103, !llvm.loop !115

103:                                              ; preds = %98
  br label %104

104:                                              ; preds = %103, %86
  %105 = load ptr, ptr %6, align 8, !tbaa !21
  %106 = getelementptr inbounds nuw %struct.internal_state, ptr %105, i32 0, i32 7
  %107 = load ptr, ptr %106, align 8, !tbaa !33
  %108 = getelementptr inbounds nuw %struct.gz_header_s, ptr %107, i32 0, i32 9
  %109 = load ptr, ptr %108, align 8, !tbaa !104
  store ptr %109, ptr %11, align 8, !tbaa !11
  %110 = load ptr, ptr %11, align 8, !tbaa !11
  %111 = icmp ne ptr %110, null
  br i1 %111, label %112, label %122

112:                                              ; preds = %104
  br label %113

113:                                              ; preds = %116, %112
  %114 = load i64, ptr %9, align 8, !tbaa !72
  %115 = add i64 %114, 1
  store i64 %115, ptr %9, align 8, !tbaa !72
  br label %116

116:                                              ; preds = %113
  %117 = load ptr, ptr %11, align 8, !tbaa !11
  %118 = getelementptr inbounds nuw i8, ptr %117, i32 1
  store ptr %118, ptr %11, align 8, !tbaa !11
  %119 = load i8, ptr %117, align 1, !tbaa !13
  %120 = icmp ne i8 %119, 0
  br i1 %120, label %113, label %121, !llvm.loop !116

121:                                              ; preds = %116
  br label %122

122:                                              ; preds = %121, %104
  %123 = load ptr, ptr %6, align 8, !tbaa !21
  %124 = getelementptr inbounds nuw %struct.internal_state, ptr %123, i32 0, i32 7
  %125 = load ptr, ptr %124, align 8, !tbaa !33
  %126 = getelementptr inbounds nuw %struct.gz_header_s, ptr %125, i32 0, i32 11
  %127 = load i32, ptr %126, align 4, !tbaa !101
  %128 = icmp ne i32 %127, 0
  br i1 %128, label %129, label %132

129:                                              ; preds = %122
  %130 = load i64, ptr %9, align 8, !tbaa !72
  %131 = add i64 %130, 2
  store i64 %131, ptr %9, align 8, !tbaa !72
  br label %132

132:                                              ; preds = %129, %122
  call void @llvm.lifetime.end.p0(i64 8, ptr %11) #5
  br label %133

133:                                              ; preds = %132, %64
  br label %135

134:                                              ; preds = %48
  store i64 6, ptr %9, align 8, !tbaa !72
  br label %135

135:                                              ; preds = %134, %133, %56, %55
  %136 = load ptr, ptr %6, align 8, !tbaa !21
  %137 = getelementptr inbounds nuw %struct.internal_state, ptr %136, i32 0, i32 12
  %138 = load i32, ptr %137, align 4, !tbaa !34
  %139 = icmp ne i32 %138, 15
  br i1 %139, label %145, label %140

140:                                              ; preds = %135
  %141 = load ptr, ptr %6, align 8, !tbaa !21
  %142 = getelementptr inbounds nuw %struct.internal_state, ptr %141, i32 0, i32 20
  %143 = load i32, ptr %142, align 8, !tbaa !37
  %144 = icmp ne i32 %143, 15
  br i1 %144, label %145, label %166

145:                                              ; preds = %140, %135
  %146 = load ptr, ptr %6, align 8, !tbaa !21
  %147 = getelementptr inbounds nuw %struct.internal_state, ptr %146, i32 0, i32 12
  %148 = load i32, ptr %147, align 4, !tbaa !34
  %149 = load ptr, ptr %6, align 8, !tbaa !21
  %150 = getelementptr inbounds nuw %struct.internal_state, ptr %149, i32 0, i32 20
  %151 = load i32, ptr %150, align 8, !tbaa !37
  %152 = icmp ule i32 %148, %151
  br i1 %152, label %153, label %160

153:                                              ; preds = %145
  %154 = load ptr, ptr %6, align 8, !tbaa !21
  %155 = getelementptr inbounds nuw %struct.internal_state, ptr %154, i32 0, i32 33
  %156 = load i32, ptr %155, align 4, !tbaa !50
  %157 = icmp ne i32 %156, 0
  br i1 %157, label %158, label %160

158:                                              ; preds = %153
  %159 = load i64, ptr %7, align 8, !tbaa !72
  br label %162

160:                                              ; preds = %153, %145
  %161 = load i64, ptr %8, align 8, !tbaa !72
  br label %162

162:                                              ; preds = %160, %158
  %163 = phi i64 [ %159, %158 ], [ %161, %160 ]
  %164 = load i64, ptr %9, align 8, !tbaa !72
  %165 = add i64 %163, %164
  store i64 %165, ptr %3, align 8
  store i32 1, ptr %10, align 4
  br label %181

166:                                              ; preds = %140
  %167 = load i64, ptr %5, align 8, !tbaa !72
  %168 = load i64, ptr %5, align 8, !tbaa !72
  %169 = lshr i64 %168, 12
  %170 = add i64 %167, %169
  %171 = load i64, ptr %5, align 8, !tbaa !72
  %172 = lshr i64 %171, 14
  %173 = add i64 %170, %172
  %174 = load i64, ptr %5, align 8, !tbaa !72
  %175 = lshr i64 %174, 25
  %176 = add i64 %173, %175
  %177 = add i64 %176, 13
  %178 = sub i64 %177, 6
  %179 = load i64, ptr %9, align 8, !tbaa !72
  %180 = add i64 %178, %179
  store i64 %180, ptr %3, align 8
  store i32 1, ptr %10, align 4
  br label %181

181:                                              ; preds = %166, %162, %45
  call void @llvm.lifetime.end.p0(i64 8, ptr %9) #5
  call void @llvm.lifetime.end.p0(i64 8, ptr %8) #5
  call void @llvm.lifetime.end.p0(i64 8, ptr %7) #5
  call void @llvm.lifetime.end.p0(i64 8, ptr %6) #5
  %182 = load i64, ptr %3, align 8
  ret i64 %182
}