; Function Attrs: nofree norecurse nosync nounwind memory(read, inaccessiblemem: none) uwtable
define dso_local i64 @cm_zlib_deflateBound(ptr noundef readonly %0, i64 noundef %1) local_unnamed_addr #7 {
  %3 = lshr i64 %1, 3
  %4 = lshr i64 %1, 8
  %5 = lshr i64 %1, 9
  %6 = add i64 %1, 4
  %7 = add i64 %6, %3
  %8 = add i64 %7, %4
  %9 = add i64 %8, %5
  %10 = lshr i64 %1, 5
  %11 = lshr i64 %1, 7
  %12 = lshr i64 %1, 11
  %13 = add i64 %1, 7
  %14 = add i64 %13, %10
  %15 = add i64 %14, %11
  %16 = add i64 %15, %12
  %17 = icmp eq ptr %0, null
  br i1 %17, label %35, label %18

18:                                               ; preds = %2
  %19 = getelementptr inbounds nuw i8, ptr %0, i64 64
  %20 = load ptr, ptr %19, align 8, !tbaa !14
  %21 = icmp eq ptr %20, null
  br i1 %21, label %35, label %22

22:                                               ; preds = %18
  %23 = getelementptr inbounds nuw i8, ptr %0, i64 72
  %24 = load ptr, ptr %23, align 8, !tbaa !16
  %25 = icmp eq ptr %24, null
  br i1 %25, label %35, label %26

26:                                               ; preds = %22
  %27 = getelementptr inbounds nuw i8, ptr %0, i64 56
  %28 = load ptr, ptr %27, align 8, !tbaa !17
  %29 = icmp eq ptr %28, null
  br i1 %29, label %35, label %30

30:                                               ; preds = %26
  %31 = load ptr, ptr %28, align 8, !tbaa !18
  %.not.i = icmp eq ptr %31, %0
  br i1 %.not.i, label %32, label %35

32:                                               ; preds = %30
  %33 = getelementptr inbounds nuw i8, ptr %28, i64 8
  %34 = load i32, ptr %33, align 8, !tbaa !27
  switch i32 %34, label %35 [
    i32 42, label %deflateStateCheck.exit
    i32 57, label %deflateStateCheck.exit
    i32 69, label %deflateStateCheck.exit
    i32 73, label %deflateStateCheck.exit
    i32 91, label %deflateStateCheck.exit
    i32 103, label %deflateStateCheck.exit
    i32 113, label %deflateStateCheck.exit
    i32 666, label %deflateStateCheck.exit
  ]

35:                                               ; preds = %22, %18, %2, %32, %30, %26
  %36 = tail call i64 @llvm.umax.i64(i64 %9, i64 %16)
  %37 = add i64 %36, 6
  br label %91

deflateStateCheck.exit:                           ; preds = %32, %32, %32, %32, %32, %32, %32, %32
  %38 = getelementptr inbounds nuw i8, ptr %28, i64 48
  %39 = load i32, ptr %38, align 8, !tbaa !28
  switch i32 %39, label %70 [
    i32 0, label %71
    i32 1, label %40
    i32 2, label %44
  ]

40:                                               ; preds = %deflateStateCheck.exit
  %41 = getelementptr inbounds nuw i8, ptr %28, i64 172
  %42 = load i32, ptr %41, align 4, !tbaa !61
  %.not56 = icmp eq i32 %42, 0
  %43 = select i1 %.not56, i64 6, i64 10
  br label %71

44:                                               ; preds = %deflateStateCheck.exit
  %45 = getelementptr inbounds nuw i8, ptr %28, i64 56
  %46 = load ptr, ptr %45, align 8, !tbaa !29
  %.not49 = icmp eq ptr %46, null
  br i1 %.not49, label %71, label %47

47:                                               ; preds = %44
  %48 = getelementptr inbounds nuw i8, ptr %46, i64 24
  %49 = load ptr, ptr %48, align 8, !tbaa !97
  %.not50 = icmp eq ptr %49, null
  br i1 %.not50, label %56, label %50

50:                                               ; preds = %47
  %51 = getelementptr inbounds nuw i8, ptr %46, i64 32
  %52 = load i32, ptr %51, align 8, !tbaa !102
  %53 = add i32 %52, 2
  %54 = zext i32 %53 to i64
  %55 = add nuw nsw i64 %54, 18
  br label %56

56:                                               ; preds = %50, %47
  %.144 = phi i64 [ %55, %50 ], [ 18, %47 ]
  %57 = getelementptr inbounds nuw i8, ptr %46, i64 40
  %58 = load ptr, ptr %57, align 8, !tbaa !98
  %.not51 = icmp eq ptr %58, null
  br i1 %.not51, label %.loopexit64, label %.preheader63

.preheader63:                                     ; preds = %56, %.preheader63
  %.3 = phi i64 [ %59, %.preheader63 ], [ %.144, %56 ]
  %.0 = phi ptr [ %60, %.preheader63 ], [ %58, %56 ]
  %59 = add i64 %.3, 1
  %60 = getelementptr inbounds nuw i8, ptr %.0, i64 1
  %61 = load i8, ptr %.0, align 1, !tbaa !4
  %.not52 = icmp eq i8 %61, 0
  br i1 %.not52, label %.loopexit64, label %.preheader63, !llvm.loop !107

.loopexit64:                                      ; preds = %.preheader63, %56
  %.2 = phi i64 [ %.144, %56 ], [ %59, %.preheader63 ]
  %62 = getelementptr inbounds nuw i8, ptr %46, i64 56
  %63 = load ptr, ptr %62, align 8, !tbaa !99
  %.not53 = icmp eq ptr %63, null
  br i1 %.not53, label %.loopexit, label %.preheader

.preheader:                                       ; preds = %.loopexit64, %.preheader
  %.5 = phi i64 [ %64, %.preheader ], [ %.2, %.loopexit64 ]
  %.1 = phi ptr [ %65, %.preheader ], [ %63, %.loopexit64 ]
  %64 = add i64 %.5, 1
  %65 = getelementptr inbounds nuw i8, ptr %.1, i64 1
  %66 = load i8, ptr %.1, align 1, !tbaa !4
  %.not54 = icmp eq i8 %66, 0
  br i1 %.not54, label %.loopexit, label %.preheader, !llvm.loop !108

.loopexit:                                        ; preds = %.preheader, %.loopexit64
  %.4 = phi i64 [ %.2, %.loopexit64 ], [ %64, %.preheader ]
  %67 = getelementptr inbounds nuw i8, ptr %46, i64 68
  %68 = load i32, ptr %67, align 4, !tbaa !96
  %.not55 = icmp eq i32 %68, 0
  %69 = add i64 %.4, 2
  %spec.select = select i1 %.not55, i64 %.4, i64 %69
  br label %71

70:                                               ; preds = %deflateStateCheck.exit
  br label %71

71:                                               ; preds = %deflateStateCheck.exit, %44, %.loopexit, %70, %40
  %.043 = phi i64 [ 6, %70 ], [ %spec.select, %.loopexit ], [ 18, %44 ], [ %43, %40 ], [ 0, %deflateStateCheck.exit ]
  %72 = getelementptr inbounds nuw i8, ptr %28, i64 84
  %73 = load i32, ptr %72, align 4, !tbaa !30
  %.not57 = icmp eq i32 %73, 15
  %74 = getelementptr inbounds nuw i8, ptr %28, i64 136
  %75 = load i32, ptr %74, align 8, !tbaa !33
  %.not58 = icmp eq i32 %75, 15
  %or.cond = select i1 %.not57, i1 %.not58, i1 false
  br i1 %or.cond, label %83, label %._crit_edge

._crit_edge:                                      ; preds = %71
  %.not59 = icmp ugt i32 %73, %75
  br i1 %.not59, label %79, label %76

76:                                               ; preds = %._crit_edge
  %77 = getelementptr inbounds nuw i8, ptr %28, i64 196
  %78 = load i32, ptr %77, align 4, !tbaa !47
  %.not60 = icmp eq i32 %78, 0
  br i1 %.not60, label %79, label %80

79:                                               ; preds = %76, %._crit_edge
  br label %80

80:                                               ; preds = %76, %79
  %81 = phi i64 [ %16, %79 ], [ %9, %76 ]
  %82 = add i64 %81, %.043
  br label %91

83:                                               ; preds = %71
  %84 = lshr i64 %1, 12
  %85 = lshr i64 %1, 14
  %86 = lshr i64 %1, 25
  %87 = add i64 %13, %84
  %88 = add i64 %87, %85
  %89 = add i64 %88, %86
  %90 = add i64 %89, %.043
  br label %91

91:                                               ; preds = %83, %80, %35
  %.045 = phi i64 [ %37, %35 ], [ %82, %80 ], [ %90, %83 ]
  ret i64 %.045
}